target datalayout = "e-m:e-p270:32:32-p271:32:32-p272:64:64-i64:64-i128:128-f80:128-n8:16:32:64-S128"
target triple = "x86_64-pc-linux-gnu"

%struct.ParseCallbackState = type { ptr, i32, %struct.ErrorContextCallback }
%struct.ErrorContextCallback = type { ptr, ptr, ptr }
%struct.RangeVar = type { i32, ptr, ptr, ptr, i8, i8, ptr, i32 }

@.str.1 = private unnamed_addr constant [17 x i8] c"parse_relation.c\00", align 1
@.str.10 = private unnamed_addr constant [32 x i8] c"relation \22%s.%s\22 does not exist\00", align 1
@__func__.parserOpenTable = private unnamed_addr constant [16 x i8] c"parserOpenTable\00", align 1
@.str.11 = private unnamed_addr constant [29 x i8] c"relation \22%s\22 does not exist\00", align 1
@.str.12 = private unnamed_addr constant [90 x i8] c"There is a WITH item named \22%s\22, but it cannot be referenced from this part of the query.\00", align 1
@.str.13 = private unnamed_addr constant [77 x i8] c"Use WITH RECURSIVE, or re-order the WITH items to remove forward references.\00", align 1

; Function Attrs: nounwind uwtable
define dso_local ptr @parserOpenTable(ptr noundef %0, ptr noundef %1, i32 noundef %2) #0 {
  %4 = alloca ptr, align 8
  %5 = alloca ptr, align 8
  %6 = alloca i32, align 4
  %7 = alloca ptr, align 8
  %8 = alloca %struct.ParseCallbackState, align 8
  store ptr %0, ptr %4, align 8
  store ptr %1, ptr %5, align 8
  store i32 %2, ptr %6, align 4
  call void @llvm.lifetime.start.p0(i64 8, ptr %7) #8
  call void @llvm.lifetime.start.p0(i64 40, ptr %8) #8
  %9 = load ptr, ptr %4, align 8
  %10 = load ptr, ptr %5, align 8
  %11 = getelementptr inbounds nuw %struct.RangeVar, ptr %10, i32 0, i32 7
  %12 = load i32, ptr %11, align 8
  call void @setup_parser_errposition_callback(ptr noundef %8, ptr noundef %9, i32 noundef %12)
  %13 = load ptr, ptr %5, align 8
  %14 = load i32, ptr %6, align 4
  %15 = call ptr @table_openrv_extended(ptr noundef %13, i32 noundef %14, i1 noundef zeroext true)
  store ptr %15, ptr %7, align 8
  %16 = load ptr, ptr %7, align 8
  %17 = icmp eq ptr %16, null
  br i1 %17, label %18, label %84

18:                                               ; preds = %3
  %19 = load ptr, ptr %5, align 8
  %20 = getelementptr inbounds nuw %struct.RangeVar, ptr %19, i32 0, i32 2
  %21 = load ptr, ptr %20, align 8
  %22 = icmp ne ptr %21, null
  br i1 %22, label %23, label %41

23:                                               ; preds = %18
  br label %24

24:                                               ; preds = %23
  br i1 true, label %25, label %27

25:                                               ; preds = %24
  %26 = call zeroext i1 @errstart_cold(i32 noundef 21, ptr noundef null) #9
  br i1 %26, label %29, label %38

27:                                               ; preds = %24
  %28 = call zeroext i1 @errstart(i32 noundef 21, ptr noundef null)
  br i1 %28, label %29, label %38

29:                                               ; preds = %27, %25
  %30 = call i32 @errcode(i32 noundef 16908420)
  %31 = load ptr, ptr %5, align 8
  %32 = getelementptr inbounds nuw %struct.RangeVar, ptr %31, i32 0, i32 2
  %33 = load ptr, ptr %32, align 8
  %34 = load ptr, ptr %5, align 8
  %35 = getelementptr inbounds nuw %struct.RangeVar, ptr %34, i32 0, i32 3
  %36 = load ptr, ptr %35, align 8
  %37 = call i32 (ptr, ...) @errmsg(ptr noundef @.str.10, ptr noundef %33, ptr noundef %36)
  call void @errfinish(ptr noundef @.str.1, i32 noundef 1448, ptr noundef @__func__.parserOpenTable)
  br label %38

38:                                               ; preds = %29, %27, %25
  unreachable

39:                                               ; No predecessors!
  br label %40

40:                                               ; preds = %39
  br label %83

41:                                               ; preds = %18
  %42 = load ptr, ptr %4, align 8
  %43 = load ptr, ptr %5, align 8
  %44 = getelementptr inbounds nuw %struct.RangeVar, ptr %43, i32 0, i32 3
  %45 = load ptr, ptr %44, align 8
  %46 = call zeroext i1 @isFutureCTE(ptr noundef %42, ptr noundef %45)
  br i1 %46, label %47, label %67

47:                                               ; preds = %41
  br label %48

48:                                               ; preds = %47
  br i1 true, label %49, label %51

49:                                               ; preds = %48
  %50 = call zeroext i1 @errstart_cold(i32 noundef 21, ptr noundef null) #9
  br i1 %50, label %53, label %64

51:                                               ; preds = %48
  %52 = call zeroext i1 @errstart(i32 noundef 21, ptr noundef null)
  br i1 %52, label %53, label %64

53:                                               ; preds = %51, %49
  %54 = call i32 @errcode(i32 noundef 16908420)
  %55 = load ptr, ptr %5, align 8
  %56 = getelementptr inbounds nuw %struct.RangeVar, ptr %55, i32 0, i32 3
  %57 = load ptr, ptr %56, align 8
  %58 = call i32 (ptr, ...) @errmsg(ptr noundef @.str.11, ptr noundef %57)
  %59 = load ptr, ptr %5, align 8
  %60 = getelementptr inbounds nuw %struct.RangeVar, ptr %59, i32 0, i32 3
  %61 = load ptr, ptr %60, align 8
  %62 = call i32 (ptr, ...) @errdetail(ptr noundef @.str.12, ptr noundef %61)
  %63 = call i32 (ptr, ...) @errhint(ptr noundef @.str.13)
  call void @errfinish(ptr noundef @.str.1, i32 noundef 1464, ptr noundef @__func__.parserOpenTable)
  br label %64

64:                                               ; preds = %53, %51, %49
  unreachable

65:                                               ; No predecessors!
  br label %66

66:                                               ; preds = %65
  br label %82

67:                                               ; preds = %41
  br label %68

68:                                               ; preds = %67
  br i1 true, label %69, label %71

69:                                               ; preds = %68
  %70 = call zeroext i1 @errstart_cold(i32 noundef 21, ptr noundef null) #9
  br i1 %70, label %73, label %79

71:                                               ; preds = %68
  %72 = call zeroext i1 @errstart(i32 noundef 21, ptr noundef null)
  br i1 %72, label %73, label %79

73:                                               ; preds = %71, %69
  %74 = call i32 @errcode(i32 noundef 16908420)
  %75 = load ptr, ptr %5, align 8
  %76 = getelementptr inbounds nuw %struct.RangeVar, ptr %75, i32 0, i32 3
  %77 = load ptr, ptr %76, align 8
  %78 = call i32 (ptr, ...) @errmsg(ptr noundef @.str.11, ptr noundef %77)
  call void @errfinish(ptr noundef @.str.1, i32 noundef 1469, ptr noundef @__func__.parserOpenTable)
  br label %79

79:                                               ; preds = %73, %71, %69
  unreachable

80:                                               ; No predecessors!
  br label %81

81:                                               ; preds = %80
  br label %82

82:                                               ; preds = %81, %66
  br label %83

83:                                               ; preds = %82, %40
  br label %84

84:                                               ; preds = %83, %3
  call void @cancel_parser_errposition_callback(ptr noundef %8)
  %85 = load ptr, ptr %7, align 8
  call void @llvm.lifetime.end.p0(i64 40, ptr %8) #8
  call void @llvm.lifetime.end.p0(i64 8, ptr %7) #8
  ret ptr %85
}