; Function Attrs: nounwind uwtable
define dso_local nonnull ptr @parserOpenTable(ptr noundef %0, ptr noundef %1, i32 noundef %2) local_unnamed_addr #0 {
  %4 = alloca %struct.ParseCallbackState, align 8
  call void @llvm.lifetime.start.p0(i64 40, ptr nonnull %4) #11
  %5 = getelementptr inbounds nuw i8, ptr %1, i64 48
  %6 = load i32, ptr %5, align 8
  call void @setup_parser_errposition_callback(ptr noundef nonnull %4, ptr noundef %0, i32 noundef %6) #11
  %7 = call ptr @table_openrv_extended(ptr noundef %1, i32 noundef %2, i1 noundef zeroext true) #11
  %8 = icmp eq ptr %7, null
  br i1 %8, label %9, label %32

9:                                                ; preds = %3
  %10 = getelementptr inbounds nuw i8, ptr %1, i64 16
  %11 = load ptr, ptr %10, align 8
  %.not = icmp eq ptr %11, null
  br i1 %.not, label %19, label %12

12:                                               ; preds = %9
  %13 = call zeroext i1 @errstart_cold(i32 noundef 21, ptr noundef null) #13
  call void @llvm.assume(i1 %13)
  %14 = call i32 @errcode(i32 noundef 16908420) #11
  %15 = load ptr, ptr %10, align 8
  %16 = getelementptr inbounds nuw i8, ptr %1, i64 24
  %17 = load ptr, ptr %16, align 8
  %18 = call i32 (ptr, ...) @errmsg(ptr noundef nonnull @.str.10, ptr noundef %15, ptr noundef %17) #11
  call void @errfinish(ptr noundef nonnull @.str.1, i32 noundef 1448, ptr noundef nonnull @__func__.parserOpenTable) #11
  unreachable

19:                                               ; preds = %9
  %20 = getelementptr inbounds nuw i8, ptr %1, i64 24
  %21 = load ptr, ptr %20, align 8
  %22 = call fastcc zeroext i1 @isFutureCTE(ptr noundef %0, ptr noundef %21)
  %23 = call zeroext i1 @errstart_cold(i32 noundef 21, ptr noundef null) #13
  call void @llvm.assume(i1 %23)
  %24 = call i32 @errcode(i32 noundef 16908420) #11
  %25 = load ptr, ptr %20, align 8
  %26 = call i32 (ptr, ...) @errmsg(ptr noundef nonnull @.str.11, ptr noundef %25) #11
  br i1 %22, label %27, label %31

27:                                               ; preds = %19
  %28 = load ptr, ptr %20, align 8
  %29 = call i32 (ptr, ...) @errdetail(ptr noundef nonnull @.str.12, ptr noundef %28) #11
  %30 = call i32 (ptr, ...) @errhint(ptr noundef nonnull @.str.13) #11
  call void @errfinish(ptr noundef nonnull @.str.1, i32 noundef 1464, ptr noundef nonnull @__func__.parserOpenTable) #11
  unreachable

31:                                               ; preds = %19
  call void @errfinish(ptr noundef nonnull @.str.1, i32 noundef 1469, ptr noundef nonnull @__func__.parserOpenTable) #11
  unreachable

32:                                               ; preds = %3
  call void @cancel_parser_errposition_callback(ptr noundef nonnull %4) #11
  call void @llvm.lifetime.end.p0(i64 40, ptr nonnull %4) #11
  ret ptr %7
}